target datalayout = "e-m:e-p270:32:32-p271:32:32-p272:64:64-i64:64-i128:128-f80:128-n8:16:32:64-S128"
target triple = "x86_64-pc-linux-gnu"

@.str = private unnamed_addr constant [1 x i8] zeroinitializer, align 1

; Function Attrs: nounwind uwtable
define void @php_dom_xpath_callbacks_clean_argument_stack(ptr noundef %0, i32 noundef %1) #0 {
  %3 = alloca ptr, align 8
  %4 = alloca i32, align 4
  %5 = alloca i32, align 4
  %6 = alloca ptr, align 8
  store ptr %0, ptr %3, align 8
  store i32 %1, ptr %4, align 4
  store i32 0, ptr %5, align 4
  br label %7

7:                                                ; preds = %15, %2
  %8 = load i32, ptr %5, align 4
  %9 = load i32, ptr %4, align 4
  %10 = icmp ult i32 %8, %9
  br i1 %10, label %11, label %18

11:                                               ; preds = %7
  %12 = load ptr, ptr %3, align 8
  %13 = call ptr @valuePop(ptr noundef %12)
  store ptr %13, ptr %6, align 8
  %14 = load ptr, ptr %6, align 8
  call void @xmlXPathFreeObject(ptr noundef %14)
  br label %15

15:                                               ; preds = %11
  %16 = load i32, ptr %5, align 4
  %17 = add i32 %16, 1
  store i32 %17, ptr %5, align 4
  br label %7

18:                                               ; preds = %7
  %19 = load ptr, ptr %3, align 8
  %20 = call ptr @xmlXPathNewString(ptr noundef @.str)
  %21 = call i32 @valuePush(ptr noundef %19, ptr noundef %20)
  ret void
}