; Function Attrs: nounwind uwtable
define void @php_dom_xpath_callbacks_clean_argument_stack(ptr noundef %0, i32 noundef %1) local_unnamed_addr #0 {
  %.not = icmp eq i32 %1, 0
  br i1 %.not, label %._crit_edge, label %.lr.ph

.lr.ph:                                           ; preds = %2, %.lr.ph
  %.05 = phi i32 [ %4, %.lr.ph ], [ 0, %2 ]
  %3 = tail call ptr @valuePop(ptr noundef %0) #9
  tail call void @xmlXPathFreeObject(ptr noundef %3) #9
  %4 = add nuw i32 %.05, 1
  %exitcond.not = icmp eq i32 %4, %1
  br i1 %exitcond.not, label %._crit_edge, label %.lr.ph

._crit_edge:                                      ; preds = %.lr.ph, %2
  %5 = tail call ptr @xmlXPathNewString(ptr noundef nonnull @.str) #9
  %6 = tail call i32 @valuePush(ptr noundef %0, ptr noundef %5) #9
  ret void
}